; Function Attrs: nounwind uwtable
define ptr @l___private_Lean_Compiler_LCNF_JoinPoints_0__Lean_Compiler_LCNF_JoinPointFinder_addCandidate(ptr noundef %0, ptr noundef %1, ptr readnone captures(none) %2, ptr noundef %3, ptr readnone captures(none) %4, ptr readnone captures(none) %5, ptr readnone captures(none) %6, ptr readnone captures(none) %7, ptr readnone captures(none) %8, ptr noundef %9) local_unnamed_addr #1 {
  %11 = load ptr, ptr @l_Lean_Compiler_LCNF_JoinPointFinder_instInhabitedCandidateInfo___closed__3, align 8, !tbaa !4
  tail call void @lean_inc_heartbeat() #5
  %12 = tail call noalias ptr @mi_malloc_small(i64 noundef 24) #5
  %13 = icmp eq ptr %12, null
  br i1 %13, label %14, label %lean_alloc_ctor.exit

14:                                               ; preds = %10
  tail call void @lean_internal_panic_out_of_memory() #6
  unreachable

lean_alloc_ctor.exit:                             ; preds = %10
  %15 = getelementptr inbounds nuw i8, ptr %12, i64 4
  store i32 1, ptr %12, align 4, !tbaa !8
  store i32 131096, ptr %15, align 4
  %16 = getelementptr inbounds nuw i8, ptr %12, i64 8
  store ptr %1, ptr %16, align 8, !tbaa !4
  %17 = getelementptr inbounds nuw i8, ptr %12, i64 16
  store ptr %11, ptr %17, align 8, !tbaa !4
  tail call void @lean_inc_heartbeat() #5
  %18 = tail call noalias ptr @mi_malloc_small(i64 noundef 48) #5
  %19 = icmp eq ptr %18, null
  br i1 %19, label %20, label %lean_alloc_closure.exit

20:                                               ; preds = %lean_alloc_ctor.exit
  tail call void @lean_internal_panic_out_of_memory() #6
  unreachable

lean_alloc_closure.exit:                          ; preds = %lean_alloc_ctor.exit
  %21 = getelementptr inbounds nuw i8, ptr %18, i64 4
  store i32 1, ptr %18, align 4, !tbaa !8
  store i32 -184549328, ptr %21, align 4
  %22 = getelementptr inbounds nuw i8, ptr %18, i64 8
  store ptr @l___private_Lean_Compiler_LCNF_JoinPoints_0__Lean_Compiler_LCNF_JoinPointFinder_addCandidate___lambda__1, ptr %22, align 8, !tbaa !4
  %23 = getelementptr inbounds nuw i8, ptr %18, i64 16
  store i16 4, ptr %23, align 8, !tbaa !15
  %24 = getelementptr inbounds nuw i8, ptr %18, i64 18
  store i16 3, ptr %24, align 2, !tbaa !15
  %25 = getelementptr inbounds nuw i8, ptr %18, i64 24
  store ptr %0, ptr %25, align 8, !tbaa !4
  %26 = getelementptr inbounds nuw i8, ptr %18, i64 32
  store ptr %12, ptr %26, align 8, !tbaa !4
  %27 = getelementptr inbounds nuw i8, ptr %18, i64 40
  store ptr inttoptr (i64 1 to ptr), ptr %27, align 8, !tbaa !4
  %28 = tail call ptr @l___private_Lean_Compiler_LCNF_JoinPoints_0__Lean_Compiler_LCNF_JoinPointFinder_modifyCandidates(ptr noundef nonnull %18, ptr poison, ptr noundef %3, ptr poison, ptr poison, ptr poison, ptr poison, ptr poison, ptr noundef %9)
  ret ptr %28
}